(dp1
S'comic_id'
p2
(dp3
S'length'
p4
S'reference comics'
p5
sS'unique'
p6
I00
sS'sortable'
p7
I2
sS'sql'
p8
S'INTEGER'
p9
sS'notnull'
p10
I00
sS'type'
p11
S'integer'
p12
ssS'author_id'
p13
(dp14
g4
S'reference authors'
p15
sg6
I00
sg7
I3
sg8
S'INTEGER'
p16
sg10
I00
sg11
g12
ssS'id'
p17
(dp18
g4
I512
sg6
I00
sg7
I1
sg8
S'INTEGER PRIMARY KEY AUTOINCREMENT'
p19
sg10
I00
sg11
g17
ss.